; Function Attrs: nounwind uwtable
define ptr @l_Lean_Meta_MatcherApp_addArg___lambda__1(ptr noundef readonly captures(none) %0, ptr noundef readonly captures(none) %1, ptr noundef %2, ptr readnone captures(none) %3, ptr noundef %4) local_unnamed_addr #1 {
  %6 = ptrtoint ptr %2 to i64
  %7 = lshr i64 %6, 1
  %8 = getelementptr inbounds nuw i8, ptr %0, i64 24
  %9 = getelementptr inbounds nuw [0 x ptr], ptr %8, i64 0, i64 %7
  %10 = load ptr, ptr %9, align 8, !tbaa !4
  %11 = ptrtoint ptr %10 to i64
  %12 = and i64 %11, 1
  %.not.i.i = icmp eq i64 %12, 0
  br i1 %.not.i.i, label %13, label %lean_array_fget.exit.thread

13:                                               ; preds = %5
  %.val.i.i.i = load i32, ptr %10, align 4, !tbaa !8
  %14 = icmp sgt i32 %.val.i.i.i, 0
  br i1 %14, label %15, label %17, !prof !11

15:                                               ; preds = %13
  %16 = add nuw i32 %.val.i.i.i, 1
  store i32 %16, ptr %10, align 4, !tbaa !8
  br label %lean_array_fget.exit

17:                                               ; preds = %13
  %.not.i.i.i = icmp eq i32 %.val.i.i.i, 0
  br i1 %.not.i.i.i, label %lean_array_fget.exit, label %18

18:                                               ; preds = %17
  tail call void @lean_inc_ref_cold(ptr noundef nonnull %10) #4
  br label %lean_array_fget.exit

lean_array_fget.exit:                             ; preds = %15, %17, %18
  %19 = tail call zeroext i8 @l_Lean_Expr_isFVar(ptr noundef nonnull %10) #4
  %20 = icmp eq i8 %19, 0
  br i1 %20, label %23, label %38

lean_array_fget.exit.thread:                      ; preds = %5
  %21 = tail call zeroext i8 @l_Lean_Expr_isFVar(ptr noundef %10) #4
  %22 = icmp eq i8 %21, 0
  br i1 %22, label %lean_dec.exit15, label %38

23:                                               ; preds = %lean_array_fget.exit
  %24 = load i32, ptr %10, align 4, !tbaa !8
  %25 = icmp sgt i32 %24, 1
  br i1 %25, label %26, label %28, !prof !11

26:                                               ; preds = %23
  %27 = add nsw i32 %24, -1
  store i32 %27, ptr %10, align 4, !tbaa !8
  br label %lean_dec.exit15

28:                                               ; preds = %23
  %.not.i = icmp eq i32 %24, 0
  br i1 %.not.i, label %lean_dec.exit15, label %29

29:                                               ; preds = %28
  tail call void @lean_dec_ref_cold(ptr noundef nonnull %10) #4
  br label %lean_dec.exit15

lean_dec.exit15:                                  ; preds = %lean_array_fget.exit.thread, %29, %28, %26
  %30 = ptrtoint ptr %4 to i64
  %31 = and i64 %30, 1
  %.not25 = icmp eq i64 %31, 0
  br i1 %.not25, label %32, label %lean_inc.exit

32:                                               ; preds = %lean_dec.exit15
  %.val.i = load i32, ptr %4, align 4, !tbaa !8
  %33 = icmp sgt i32 %.val.i, 0
  br i1 %33, label %34, label %36, !prof !11

34:                                               ; preds = %32
  %35 = add nuw i32 %.val.i, 1
  store i32 %35, ptr %4, align 4, !tbaa !8
  br label %lean_inc.exit

36:                                               ; preds = %32
  %.not.i18 = icmp eq i32 %.val.i, 0
  br i1 %.not.i18, label %lean_inc.exit, label %37

37:                                               ; preds = %36
  tail call void @lean_inc_ref_cold(ptr noundef nonnull %4) #4
  br label %lean_inc.exit

38:                                               ; preds = %lean_array_fget.exit.thread, %lean_array_fget.exit
  %39 = load ptr, ptr @l_Lean_instInhabitedExpr, align 8, !tbaa !4
  %40 = and i64 %6, 1
  %.not.i19 = icmp eq i64 %40, 0
  br i1 %.not.i19, label %lean_array_uget.exit.i, label %41

41:                                               ; preds = %38
  %42 = getelementptr i8, ptr %1, i64 8
  %.val.i20 = load i64, ptr %42, align 8, !tbaa !12
  %43 = icmp ult i64 %7, %.val.i20
  br i1 %43, label %44, label %lean_array_uget.exit.i

44:                                               ; preds = %41
  %45 = ptrtoint ptr %39 to i64
  %46 = and i64 %45, 1
  %.not14.i = icmp eq i64 %46, 0
  br i1 %.not14.i, label %47, label %lean_dec.exit.i

47:                                               ; preds = %44
  %48 = load i32, ptr %39, align 4, !tbaa !8
  %49 = icmp sgt i32 %48, 1
  br i1 %49, label %50, label %52, !prof !11

50:                                               ; preds = %47
  %51 = add nsw i32 %48, -1
  store i32 %51, ptr %39, align 4, !tbaa !8
  br label %lean_dec.exit.i

52:                                               ; preds = %47
  %.not.i.i23 = icmp eq i32 %48, 0
  br i1 %.not.i.i23, label %lean_dec.exit.i, label %53

53:                                               ; preds = %52
  tail call void @lean_dec_ref_cold(ptr noundef nonnull %39) #4
  br label %lean_dec.exit.i

lean_dec.exit.i:                                  ; preds = %53, %52, %50, %44
  %54 = getelementptr inbounds nuw i8, ptr %1, i64 24
  %55 = getelementptr inbounds nuw [0 x ptr], ptr %54, i64 0, i64 %7
  %56 = load ptr, ptr %55, align 8, !tbaa !4
  %57 = ptrtoint ptr %56 to i64
  %58 = and i64 %57, 1
  %.not.i11.i = icmp eq i64 %58, 0
  br i1 %.not.i11.i, label %59, label %lean_array_get.exit

59:                                               ; preds = %lean_dec.exit.i
  %.val.i.i.i21 = load i32, ptr %56, align 4, !tbaa !8
  %60 = icmp sgt i32 %.val.i.i.i21, 0
  br i1 %60, label %61, label %63, !prof !11

61:                                               ; preds = %59
  %62 = add nuw i32 %.val.i.i.i21, 1
  store i32 %62, ptr %56, align 4, !tbaa !8
  br label %lean_array_get.exit

63:                                               ; preds = %59
  %.not.i.i.i22 = icmp eq i32 %.val.i.i.i21, 0
  br i1 %.not.i.i.i22, label %lean_array_get.exit, label %64

64:                                               ; preds = %63
  tail call void @lean_inc_ref_cold(ptr noundef nonnull %56) #4
  br label %lean_array_get.exit

lean_array_uget.exit.i:                           ; preds = %41, %38
  %65 = tail call ptr @lean_array_get_panic(ptr noundef %39) #4
  %.pre = ptrtoint ptr %65 to i64
  br label %lean_array_get.exit

lean_array_get.exit:                              ; preds = %lean_dec.exit.i, %61, %63, %64, %lean_array_uget.exit.i
  %.pre-phi = phi i64 [ %57, %lean_dec.exit.i ], [ %57, %61 ], [ %57, %63 ], [ %57, %64 ], [ %.pre, %lean_array_uget.exit.i ]
  %.1.i = phi ptr [ %56, %lean_dec.exit.i ], [ %56, %61 ], [ %56, %63 ], [ %56, %64 ], [ %65, %lean_array_uget.exit.i ]
  %66 = tail call ptr @l_Lean_Expr_replaceFVar(ptr noundef %4, ptr noundef %10, ptr noundef %.1.i) #4
  %67 = and i64 %.pre-phi, 1
  %.not = icmp eq i64 %67, 0
  br i1 %.not, label %68, label %lean_inc.exit

68:                                               ; preds = %lean_array_get.exit
  %69 = load i32, ptr %.1.i, align 4, !tbaa !8
  %70 = icmp sgt i32 %69, 1
  br i1 %70, label %71, label %73, !prof !11

71:                                               ; preds = %68
  %72 = add nsw i32 %69, -1
  store i32 %72, ptr %.1.i, align 4, !tbaa !8
  br label %lean_inc.exit

73:                                               ; preds = %68
  %.not.i16 = icmp eq i32 %69, 0
  br i1 %.not.i16, label %lean_inc.exit, label %74

74:                                               ; preds = %73
  tail call void @lean_dec_ref_cold(ptr noundef nonnull %.1.i) #4
  br label %lean_inc.exit

lean_inc.exit:                                    ; preds = %lean_array_get.exit, %71, %73, %74, %lean_dec.exit15, %34, %36, %37
  %.0 = phi ptr [ %4, %37 ], [ %4, %36 ], [ %4, %34 ], [ %4, %lean_dec.exit15 ], [ %66, %74 ], [ %66, %73 ], [ %66, %71 ], [ %66, %lean_array_get.exit ]
  ret ptr %.0
}